; ModuleID = 'source-C-CXX/59/1665.c'
source_filename = "source-C-CXX/59/1665.c"
target datalayout = "e-m:e-p270:32:32-p271:32:32-p272:64:64-i64:64-f80:128-n8:16:32:64-S128"
target triple = "x86_64-pc-linux-gnu"

@.str = private unnamed_addr constant [3 x i8] c"%d\00", align 1
@.str.1 = private unnamed_addr constant [7 x i8] c"%d %d\0A\00", align 1
@str = private unnamed_addr constant [6 x i8] c"empty\00", align 1

; Function Attrs: nofree nounwind sspstrong uwtable
define dso_local i32 @main() local_unnamed_addr #0 {
  %1 = alloca [10005 x i32], align 16
  %2 = alloca i32, align 4
  %3 = bitcast [10005 x i32]* %1 to i8*
  call void @llvm.lifetime.start.p0i8(i64 40020, i8* nonnull %3) #5
  call void @llvm.memset.p0i8.i64(i8* noundef nonnull align 16 dereferenceable(40020) %3, i8 0, i64 40020, i1 false)
  %4 = bitcast i32* %2 to i8*
  call void @llvm.lifetime.start.p0i8(i64 4, i8* nonnull %4) #5
  %5 = call i32 (i8*, ...) @__isoc99_scanf(i8* getelementptr inbounds ([3 x i8], [3 x i8]* @.str, i64 0, i64 0), i32* nonnull %2)
  %6 = load i32, i32* %2, align 4, !tbaa !5
  %7 = icmp slt i32 %6, 3
  br i1 %7, label %11, label %8

8:                                                ; preds = %0, %27
  %9 = phi i32 [ %28, %27 ], [ 0, %0 ]
  %10 = phi i32 [ %29, %27 ], [ 3, %0 ]
  br label %18

11:                                               ; preds = %27, %0
  %12 = icmp slt i32 %6, 0
  br i1 %12, label %52, label %13

13:                                               ; preds = %11
  %14 = getelementptr inbounds [10005 x i32], [10005 x i32]* %1, i64 0, i64 0
  %15 = load i32, i32* %14, align 16, !tbaa !5
  br label %31

16:                                               ; preds = %18
  %17 = icmp eq i32 %22, %10
  br i1 %17, label %23, label %18, !llvm.loop !9

18:                                               ; preds = %8, %16
  %19 = phi i32 [ %22, %16 ], [ 2, %8 ]
  %20 = urem i32 %10, %19
  %21 = icmp eq i32 %20, 0
  %22 = add nuw nsw i32 %19, 1
  br i1 %21, label %27, label %16

23:                                               ; preds = %16
  %24 = sext i32 %9 to i64
  %25 = getelementptr inbounds [10005 x i32], [10005 x i32]* %1, i64 0, i64 %24
  store i32 %10, i32* %25, align 4, !tbaa !5
  %26 = add nsw i32 %9, 1
  br label %27

27:                                               ; preds = %18, %23
  %28 = phi i32 [ %26, %23 ], [ %9, %18 ]
  %29 = add nuw i32 %10, 1
  %30 = icmp eq i32 %10, %6
  br i1 %30, label %11, label %8, !llvm.loop !11

31:                                               ; preds = %13, %45
  %32 = phi i32 [ %6, %13 ], [ %46, %45 ]
  %33 = phi i32 [ %15, %13 ], [ %38, %45 ]
  %34 = phi i64 [ 0, %13 ], [ %36, %45 ]
  %35 = phi i32 [ 0, %13 ], [ %47, %45 ]
  %36 = add nuw nsw i64 %34, 1
  %37 = getelementptr inbounds [10005 x i32], [10005 x i32]* %1, i64 0, i64 %36
  %38 = load i32, i32* %37, align 4, !tbaa !5
  %39 = sub nsw i32 %38, %33
  %40 = icmp eq i32 %39, 2
  br i1 %40, label %41, label %45

41:                                               ; preds = %31
  %42 = call i32 (i8*, ...) @printf(i8* nonnull dereferenceable(1) getelementptr inbounds ([7 x i8], [7 x i8]* @.str.1, i64 0, i64 0), i32 %33, i32 %38)
  %43 = add nsw i32 %35, 1
  %44 = load i32, i32* %2, align 4, !tbaa !5
  br label %45

45:                                               ; preds = %31, %41
  %46 = phi i32 [ %44, %41 ], [ %32, %31 ]
  %47 = phi i32 [ %43, %41 ], [ %35, %31 ]
  %48 = sext i32 %46 to i64
  %49 = icmp slt i64 %34, %48
  br i1 %49, label %31, label %50, !llvm.loop !12

50:                                               ; preds = %45
  %51 = icmp eq i32 %47, 0
  br i1 %51, label %52, label %54

52:                                               ; preds = %11, %50
  %53 = call i32 @puts(i8* nonnull dereferenceable(1) getelementptr inbounds ([6 x i8], [6 x i8]* @str, i64 0, i64 0))
  br label %54

54:                                               ; preds = %52, %50
  call void @llvm.lifetime.end.p0i8(i64 4, i8* nonnull %4) #5
  call void @llvm.lifetime.end.p0i8(i64 40020, i8* nonnull %3) #5
  ret i32 0
}

; Function Attrs: argmemonly mustprogress nofree nosync nounwind willreturn
declare void @llvm.lifetime.start.p0i8(i64 immarg, i8* nocapture) #1

; Function Attrs: argmemonly mustprogress nofree nounwind willreturn writeonly
declare void @llvm.memset.p0i8.i64(i8* nocapture writeonly, i8, i64, i1 immarg) #2

; Function Attrs: nofree nounwind
declare noundef i32 @__isoc99_scanf(i8* nocapture noundef readonly, ...) local_unnamed_addr #3

; Function Attrs: nofree nounwind
declare noundef i32 @printf(i8* nocapture noundef readonly, ...) local_unnamed_addr #3

; Function Attrs: argmemonly mustprogress nofree nosync nounwind willreturn
declare void @llvm.lifetime.end.p0i8(i64 immarg, i8* nocapture) #1

; Function Attrs: nofree nounwind
declare noundef i32 @puts(i8* nocapture noundef readonly) local_unnamed_addr #4


!llvm.module.flags = !{!0, !1, !2, !3}
!llvm.ident = !{!4}

!0 = !{i32 1, !"wchar_size", i32 4}
!1 = !{i32 7, !"PIC Level", i32 2}
!2 = !{i32 7, !"PIE Level", i32 2}
!3 = !{i32 7, !"uwtable", i32 1}
!4 = !{!"clang version 13.0.0"}
!5 = !{!6, !6, i64 0}
!6 = !{!"int", !7, i64 0}
!7 = !{!"omnipotent char", !8, i64 0}
!8 = !{!"Simple C/C++ TBAA"}
!9 = distinct !{!9, !10}
!10 = !{!"llvm.loop.mustprogress"}
!11 = distinct !{!11, !10}
!12 = distinct !{!12, !10}
